; Function Attrs: mustprogress nounwind uwtable
define hidden noundef ptr @_ZN13InstanceKlass17update_jmethod_idEPP10_jmethodIDP6Methodi(ptr nocapture noundef nonnull readonly align 8 dereferenceable(464) %0, ptr noundef %1, ptr noundef %2, i32 noundef %3) local_unnamed_addr #0 align 2 {
  %5 = getelementptr inbounds i8, ptr %2, i64 48
  %6 = load i32, ptr %5, align 4
  %7 = and i32 %6, 12
  %or.cond.not = icmp eq i32 %7, 4
  br i1 %or.cond.not, label %8, label %_ZN13InstanceKlass17method_with_idnumEi.exit

8:                                                ; preds = %4
  %9 = getelementptr inbounds i8, ptr %0, i64 400
  %10 = load ptr, ptr %9, align 8
  %11 = load i32, ptr %10, align 8
  %12 = icmp sgt i32 %11, %3
  br i1 %12, label %13, label %.thread.i

13:                                               ; preds = %8
  %14 = getelementptr inbounds i8, ptr %10, i64 8
  %15 = sext i32 %3 to i64
  %16 = getelementptr inbounds ptr, ptr %14, i64 %15
  %17 = load ptr, ptr %16, align 8
  %18 = icmp eq ptr %17, null
  br i1 %18, label %.thread.i, label %19

19:                                               ; preds = %13
  %20 = getelementptr inbounds i8, ptr %17, i64 8
  %21 = load ptr, ptr %20, align 8
  %22 = getelementptr inbounds i8, ptr %21, i64 40
  %23 = load i16, ptr %22, align 8
  %24 = zext i16 %23 to i32
  %.not.i = icmp eq i32 %24, %3
  br i1 %.not.i, label %_ZN13InstanceKlass17method_with_idnumEi.exit, label %.thread.i

.thread.i:                                        ; preds = %19, %13, %8
  %25 = getelementptr inbounds i8, ptr %10, i64 8
  %26 = icmp sgt i32 %11, 0
  br i1 %26, label %.lr.ph.preheader.i, label %_ZN13InstanceKlass17method_with_idnumEi.exit

.lr.ph.preheader.i:                               ; preds = %.thread.i
  %wide.trip.count.i = zext nneg i32 %11 to i64
  br label %.lr.ph.i

27:                                               ; preds = %.lr.ph.i
  %indvars.iv.next.i = add nuw nsw i64 %indvars.iv.i, 1
  %exitcond.not.i = icmp eq i64 %indvars.iv.next.i, %wide.trip.count.i
  br i1 %exitcond.not.i, label %_ZN13InstanceKlass17method_with_idnumEi.exit, label %.lr.ph.i, !llvm.loop !65

.lr.ph.i:                                         ; preds = %27, %.lr.ph.preheader.i
  %indvars.iv.i = phi i64 [ 0, %.lr.ph.preheader.i ], [ %indvars.iv.next.i, %27 ]
  %28 = getelementptr inbounds ptr, ptr %25, i64 %indvars.iv.i
  %29 = load ptr, ptr %28, align 8
  %30 = getelementptr inbounds i8, ptr %29, i64 8
  %31 = load ptr, ptr %30, align 8
  %32 = getelementptr inbounds i8, ptr %31, i64 40
  %33 = load i16, ptr %32, align 8
  %34 = zext i16 %33 to i32
  %35 = icmp eq i32 %34, %3
  br i1 %35, label %_ZN13InstanceKlass17method_with_idnumEi.exit, label %27

_ZN13InstanceKlass17method_with_idnumEi.exit:     ; preds = %.lr.ph.i, %27, %.thread.i, %19, %4
  %.0 = phi ptr [ %2, %4 ], [ %17, %19 ], [ null, %.thread.i ], [ null, %27 ], [ %29, %.lr.ph.i ]
  %36 = getelementptr inbounds i8, ptr %0, i64 152
  %37 = load ptr, ptr %36, align 8
  %38 = tail call noundef ptr @_ZN6Method15make_jmethod_idEP15ClassLoaderDataPS_(ptr noundef %37, ptr noundef %.0) #26
  %39 = sext i32 %3 to i64
  %40 = getelementptr ptr, ptr %1, i64 %39
  %41 = getelementptr i8, ptr %40, i64 8
  tail call void asm sideeffect "", "~{memory},~{dirflag},~{fpsr},~{flags}"() #26, !srcloc !9
  store volatile ptr %38, ptr %41, align 8
  ret ptr %38
}